target datalayout = "e-m:e-p270:32:32-p271:32:32-p272:64:64-i64:64-i128:128-f80:128-n8:16:32:64-S128"
target triple = "x86_64-pc-linux-gnu"

%struct.Dl_info = type { ptr, ptr, ptr, ptr }

@.str.46 = private unnamed_addr constant [3 x i8] c"%s\00", align 1

; Function Attrs: mustprogress nounwind uwtable
define linkonce_odr hidden noundef i64 @_Z13pointer_deltaPVKvS0_m(ptr noundef %0, ptr noundef %1, i64 noundef %2) #1 comdat {
  %4 = alloca ptr, align 8
  %5 = alloca ptr, align 8
  %6 = alloca i64, align 8
  store ptr %0, ptr %4, align 8
  store ptr %1, ptr %5, align 8
  store i64 %2, ptr %6, align 8
  %7 = load ptr, ptr %4, align 8
  %8 = ptrtoint ptr %7 to i64
  %9 = load ptr, ptr %5, align 8
  %10 = ptrtoint ptr %9 to i64
  %11 = sub i64 %8, %10
  %12 = load i64, ptr %6, align 8
  %13 = udiv i64 %11, %12
  ret i64 %13
}

; Function Attrs: mustprogress nounwind uwtable
define linkonce_odr hidden noundef i32 @_Z20pointer_delta_as_intIhEiPVKT_S2_(ptr noundef %0, ptr noundef %1) #1 comdat {
  %3 = alloca ptr, align 8
  %4 = alloca ptr, align 8
  %5 = alloca i64, align 8
  store ptr %0, ptr %3, align 8
  store ptr %1, ptr %4, align 8
  %6 = load ptr, ptr %3, align 8
  %7 = load ptr, ptr %4, align 8
  %8 = call noundef i64 @_Z13pointer_deltaPVKvS0_m(ptr noundef %6, ptr noundef %7, i64 noundef 1)
  store i64 %8, ptr %5, align 8
  %9 = load i64, ptr %5, align 8
  %10 = trunc i64 %9 to i32
  ret i32 %10
}

; Function Attrs: mustprogress nounwind uwtable
define hidden noundef zeroext i1 @_ZN2os28dll_address_to_function_nameEPhPciPib(ptr noundef %0, ptr noundef %1, i32 noundef %2, ptr noundef %3, i1 noundef zeroext %4) #1 align 2 {
  %6 = alloca i1, align 1
  %7 = alloca ptr, align 8
  %8 = alloca ptr, align 8
  %9 = alloca i32, align 4
  %10 = alloca ptr, align 8
  %11 = alloca i8, align 1
  %12 = alloca %struct.Dl_info, align 8
  store ptr %0, ptr %7, align 8
  store ptr %1, ptr %8, align 8
  store i32 %2, ptr %9, align 4
  store ptr %3, ptr %10, align 8
  %13 = zext i1 %4 to i8
  store i8 %13, ptr %11, align 1
  %14 = load ptr, ptr %7, align 8
  %15 = call i32 @dladdr(ptr noundef %14, ptr noundef %12) #12
  %16 = icmp ne i32 %15, 0
  br i1 %16, label %17, label %78

17:                                               ; preds = %5
  %18 = getelementptr inbounds %struct.Dl_info, ptr %12, i32 0, i32 3
  %19 = load ptr, ptr %18, align 8
  %20 = icmp ne ptr %19, null
  br i1 %20, label %21, label %51

21:                                               ; preds = %17
  %22 = getelementptr inbounds %struct.Dl_info, ptr %12, i32 0, i32 2
  %23 = load ptr, ptr %22, align 8
  %24 = icmp ne ptr %23, null
  br i1 %24, label %25, label %51

25:                                               ; preds = %21
  %26 = load i8, ptr %11, align 1
  %27 = trunc i8 %26 to i1
  br i1 %27, label %28, label %34

28:                                               ; preds = %25
  %29 = getelementptr inbounds %struct.Dl_info, ptr %12, i32 0, i32 2
  %30 = load ptr, ptr %29, align 8
  %31 = load ptr, ptr %8, align 8
  %32 = load i32, ptr %9, align 4
  %33 = call noundef zeroext i1 @_ZN7Decoder8demangleEPKcPci(ptr noundef %30, ptr noundef %31, i32 noundef %32)
  br i1 %33, label %41, label %34

34:                                               ; preds = %28, %25
  %35 = load ptr, ptr %8, align 8
  %36 = load i32, ptr %9, align 4
  %37 = sext i32 %36 to i64
  %38 = getelementptr inbounds %struct.Dl_info, ptr %12, i32 0, i32 2
  %39 = load ptr, ptr %38, align 8
  %40 = call i32 (ptr, i64, ptr, ...) @jio_snprintf(ptr noundef %35, i64 noundef %37, ptr noundef @.str.46, ptr noundef %39)
  br label %41

41:                                               ; preds = %34, %28
  %42 = load ptr, ptr %10, align 8
  %43 = icmp ne ptr %42, null
  br i1 %43, label %44, label %50

44:                                               ; preds = %41
  %45 = load ptr, ptr %7, align 8
  %46 = getelementptr inbounds %struct.Dl_info, ptr %12, i32 0, i32 3
  %47 = load ptr, ptr %46, align 8
  %48 = call noundef i32 @_Z20pointer_delta_as_intIhEiPVKT_S2_(ptr noundef %45, ptr noundef %47)
  %49 = load ptr, ptr %10, align 8
  store i32 %48, ptr %49, align 4
  br label %50

50:                                               ; preds = %44, %41
  store i1 true, ptr %6, align 1
  br label %86

51:                                               ; preds = %21, %17
  %52 = getelementptr inbounds %struct.Dl_info, ptr %12, i32 0, i32 0
  %53 = load ptr, ptr %52, align 8
  %54 = icmp ne ptr %53, null
  br i1 %54, label %55, label %77

55:                                               ; preds = %51
  %56 = getelementptr inbounds %struct.Dl_info, ptr %12, i32 0, i32 1
  %57 = load ptr, ptr %56, align 8
  %58 = icmp ne ptr %57, null
  br i1 %58, label %59, label %77

59:                                               ; preds = %55
  %60 = load ptr, ptr %7, align 8
  %61 = getelementptr inbounds %struct.Dl_info, ptr %12, i32 0, i32 1
  %62 = load ptr, ptr %61, align 8
  %63 = ptrtoint ptr %60 to i64
  %64 = ptrtoint ptr %62 to i64
  %65 = sub i64 %63, %64
  %66 = inttoptr i64 %65 to ptr
  %67 = load ptr, ptr %8, align 8
  %68 = load i32, ptr %9, align 4
  %69 = load ptr, ptr %10, align 8
  %70 = getelementptr inbounds %struct.Dl_info, ptr %12, i32 0, i32 0
  %71 = load ptr, ptr %70, align 8
  %72 = load i8, ptr %11, align 1
  %73 = trunc i8 %72 to i1
  %74 = call noundef zeroext i1 @_ZN7Decoder6decodeEPhPciPiPKcb(ptr noundef %66, ptr noundef %67, i32 noundef %68, ptr noundef %69, ptr noundef %71, i1 noundef zeroext %73)
  br i1 %74, label %75, label %76

75:                                               ; preds = %59
  store i1 true, ptr %6, align 1
  br label %86

76:                                               ; preds = %59
  br label %77

77:                                               ; preds = %76, %55, %51
  br label %78

78:                                               ; preds = %77, %5
  %79 = load ptr, ptr %8, align 8
  %80 = getelementptr inbounds i8, ptr %79, i64 0
  store i8 0, ptr %80, align 1
  %81 = load ptr, ptr %10, align 8
  %82 = icmp ne ptr %81, null
  br i1 %82, label %83, label %85

83:                                               ; preds = %78
  %84 = load ptr, ptr %10, align 8
  store i32 -1, ptr %84, align 4
  br label %85

85:                                               ; preds = %83, %78
  store i1 false, ptr %6, align 1
  br label %86

86:                                               ; preds = %85, %75, %50
  %87 = load i1, ptr %6, align 1
  ret i1 %87
}