; Function Attrs: mustprogress nounwind uwtable
define hidden noundef zeroext i1 @_ZN2os28dll_address_to_function_nameEPhPciPib(ptr noundef %0, ptr noundef %1, i32 noundef %2, ptr noundef %3, i1 noundef zeroext %4) local_unnamed_addr #0 align 2 {
  %6 = alloca %struct.Dl_info, align 8
  %7 = call i32 @dladdr(ptr noundef %0, ptr noundef nonnull %6) #26
  %.not = icmp eq i32 %7, 0
  br i1 %.not, label %41, label %8

8:                                                ; preds = %5
  %9 = getelementptr inbounds i8, ptr %6, i64 24
  %10 = load ptr, ptr %9, align 8
  %11 = icmp ne ptr %10, null
  %12 = getelementptr inbounds i8, ptr %6, i64 16
  %13 = load ptr, ptr %12, align 8
  %14 = icmp ne ptr %13, null
  %or.cond = select i1 %11, i1 %14, i1 false
  br i1 %or.cond, label %15, label %29

15:                                               ; preds = %8
  br i1 %4, label %16, label %18

16:                                               ; preds = %15
  %17 = call noundef zeroext i1 @_ZN7Decoder8demangleEPKcPci(ptr noundef nonnull %13, ptr noundef %1, i32 noundef %2) #26
  br i1 %17, label %22, label %._crit_edge

._crit_edge:                                      ; preds = %16
  %.pre = load ptr, ptr %12, align 8
  br label %18

18:                                               ; preds = %._crit_edge, %15
  %19 = phi ptr [ %.pre, %._crit_edge ], [ %13, %15 ]
  %20 = sext i32 %2 to i64
  %21 = call i32 (ptr, i64, ptr, ...) @jio_snprintf(ptr noundef %1, i64 noundef %20, ptr noundef nonnull @.str.46, ptr noundef %19) #26
  br label %22

22:                                               ; preds = %18, %16
  %.not27 = icmp eq ptr %3, null
  br i1 %.not27, label %42, label %23

23:                                               ; preds = %22
  %24 = load ptr, ptr %9, align 8
  %25 = ptrtoint ptr %0 to i64
  %26 = ptrtoint ptr %24 to i64
  %27 = sub i64 %25, %26
  %28 = trunc i64 %27 to i32
  br label %.sink.split

29:                                               ; preds = %8
  %30 = load ptr, ptr %6, align 8
  %31 = icmp ne ptr %30, null
  %32 = getelementptr inbounds i8, ptr %6, i64 8
  %33 = load ptr, ptr %32, align 8
  %34 = icmp ne ptr %33, null
  %or.cond5 = select i1 %31, i1 %34, i1 false
  br i1 %or.cond5, label %35, label %41

35:                                               ; preds = %29
  %36 = ptrtoint ptr %0 to i64
  %37 = ptrtoint ptr %33 to i64
  %38 = sub i64 %36, %37
  %39 = inttoptr i64 %38 to ptr
  %40 = call noundef zeroext i1 @_ZN7Decoder6decodeEPhPciPiPKcb(ptr noundef %39, ptr noundef %1, i32 noundef %2, ptr noundef %3, ptr noundef nonnull %30, i1 noundef zeroext %4) #26
  br i1 %40, label %42, label %41

41:                                               ; preds = %29, %35, %5
  store i8 0, ptr %1, align 1
  %.not26 = icmp eq ptr %3, null
  br i1 %.not26, label %42, label %.sink.split

.sink.split:                                      ; preds = %41, %23
  %.sink = phi i32 [ %28, %23 ], [ -1, %41 ]
  %.0.ph = phi i1 [ true, %23 ], [ false, %41 ]
  store i32 %.sink, ptr %3, align 4
  br label %42

42:                                               ; preds = %.sink.split, %41, %35, %22
  %.0 = phi i1 [ true, %22 ], [ true, %35 ], [ false, %41 ], [ %.0.ph, %.sink.split ]
  ret i1 %.0
}